; Function Attrs: mustprogress nofree norecurse nosync nounwind willreturn memory(argmem: write) uwtable
define void @_ZN2cv6detail8tracking17TrackerSamplerCSC6ParamsC2Ev(ptr noundef nonnull writeonly align 4 captures(none) dereferenceable(24) initializes((0, 24)) %0) unnamed_addr #3 align 2 {
  store float 3.000000e+00, ptr %0, align 4, !tbaa !3
  %2 = getelementptr inbounds nuw i8, ptr %0, i64 12
  store i32 65, ptr %2, align 4, !tbaa !9
  %3 = getelementptr inbounds nuw i8, ptr %0, i64 8
  store float 2.500000e+01, ptr %3, align 4, !tbaa !10
  %4 = getelementptr inbounds nuw i8, ptr %0, i64 4
  store float 4.000000e+00, ptr %4, align 4, !tbaa !11
  %5 = getelementptr inbounds nuw i8, ptr %0, i64 20
  store i32 65, ptr %5, align 4, !tbaa !12
  %6 = getelementptr inbounds nuw i8, ptr %0, i64 16
  store i32 100000, ptr %6, align 4, !tbaa !13
  ret void
}